
firstprog:     file format elf32-i386


Disassembly of section .init:

08048294 <_init>:
 8048294:	55                   	push   ebp
 8048295:	89 e5                	mov    ebp,esp
 8048297:	53                   	push   ebx
 8048298:	83 ec 04             	sub    esp,0x4
 804829b:	e8 00 00 00 00       	call   80482a0 <_init+0xc>
 80482a0:	5b                   	pop    ebx
 80482a1:	81 c3 54 1d 00 00    	add    ebx,0x1d54
 80482a7:	8b 93 fc ff ff ff    	mov    edx,DWORD PTR [ebx-0x4]
 80482ad:	85 d2                	test   edx,edx
 80482af:	74 05                	je     80482b6 <_init+0x22>
 80482b1:	e8 1e 00 00 00       	call   80482d4 <__gmon_start__@plt>
 80482b6:	e8 e5 00 00 00       	call   80483a0 <frame_dummy>
 80482bb:	e8 b0 01 00 00       	call   8048470 <__do_global_ctors_aux>
 80482c0:	58                   	pop    eax
 80482c1:	5b                   	pop    ebx
 80482c2:	c9                   	leave  
 80482c3:	c3                   	ret    

Disassembly of section .plt:

080482c4 <__gmon_start__@plt-0x10>:
 80482c4:	ff 35 f8 9f 04 08    	push   DWORD PTR ds:0x8049ff8
 80482ca:	ff 25 fc 9f 04 08    	jmp    DWORD PTR ds:0x8049ffc
 80482d0:	00 00                	add    BYTE PTR [eax],al
	...

080482d4 <__gmon_start__@plt>:
 80482d4:	ff 25 00 a0 04 08    	jmp    DWORD PTR ds:0x804a000
 80482da:	68 00 00 00 00       	push   0x0
 80482df:	e9 e0 ff ff ff       	jmp    80482c4 <_init+0x30>

080482e4 <__libc_start_main@plt>:
 80482e4:	ff 25 04 a0 04 08    	jmp    DWORD PTR ds:0x804a004
 80482ea:	68 08 00 00 00       	push   0x8
 80482ef:	e9 d0 ff ff ff       	jmp    80482c4 <_init+0x30>

080482f4 <puts@plt>:
 80482f4:	ff 25 08 a0 04 08    	jmp    DWORD PTR ds:0x804a008
 80482fa:	68 10 00 00 00       	push   0x10
 80482ff:	e9 c0 ff ff ff       	jmp    80482c4 <_init+0x30>

Disassembly of section .text:

08048310 <_start>:
 8048310:	31 ed                	xor    ebp,ebp
 8048312:	5e                   	pop    esi
 8048313:	89 e1                	mov    ecx,esp
 8048315:	83 e4 f0             	and    esp,0xfffffff0
 8048318:	50                   	push   eax
 8048319:	54                   	push   esp
 804831a:	52                   	push   edx
 804831b:	68 00 84 04 08       	push   0x8048400
 8048320:	68 10 84 04 08       	push   0x8048410
 8048325:	51                   	push   ecx
 8048326:	56                   	push   esi
 8048327:	68 c4 83 04 08       	push   0x80483c4
 804832c:	e8 b3 ff ff ff       	call   80482e4 <__libc_start_main@plt>
 8048331:	f4                   	hlt    
 8048332:	90                   	nop    
 8048333:	90                   	nop    
 8048334:	90                   	nop    
 8048335:	90                   	nop    
 8048336:	90                   	nop    
 8048337:	90                   	nop    
 8048338:	90                   	nop    
 8048339:	90                   	nop    
 804833a:	90                   	nop    
 804833b:	90                   	nop    
 804833c:	90                   	nop    
 804833d:	90                   	nop    
 804833e:	90                   	nop    
 804833f:	90                   	nop    

08048340 <__do_global_dtors_aux>:
 8048340:	55                   	push   ebp
 8048341:	89 e5                	mov    ebp,esp
 8048343:	53                   	push   ebx
 8048344:	83 ec 04             	sub    esp,0x4
 8048347:	80 3d 14 a0 04 08 00 	cmp    BYTE PTR ds:0x804a014,0x0
 804834e:	75 40                	jne    8048390 <__do_global_dtors_aux+0x50>
 8048350:	8b 15 18 a0 04 08    	mov    edx,DWORD PTR ds:0x804a018
 8048356:	b8 18 9f 04 08       	mov    eax,0x8049f18
 804835b:	2d 14 9f 04 08       	sub    eax,0x8049f14
 8048360:	c1 f8 02             	sar    eax,0x2
 8048363:	8d 58 ff             	lea    ebx,[eax-0x1]
 8048366:	39 da                	cmp    edx,ebx
 8048368:	73 1f                	jae    8048389 <__do_global_dtors_aux+0x49>
 804836a:	8d b6 00 00 00 00    	lea    esi,[esi+0x0]
 8048370:	8d 42 01             	lea    eax,[edx+0x1]
 8048373:	a3 18 a0 04 08       	mov    ds:0x804a018,eax
 8048378:	ff 14 85 14 9f 04 08 	call   DWORD PTR [eax*4+0x8049f14]
 804837f:	8b 15 18 a0 04 08    	mov    edx,DWORD PTR ds:0x804a018
 8048385:	39 da                	cmp    edx,ebx
 8048387:	72 e7                	jb     8048370 <__do_global_dtors_aux+0x30>
 8048389:	c6 05 14 a0 04 08 01 	mov    BYTE PTR ds:0x804a014,0x1
 8048390:	83 c4 04             	add    esp,0x4
 8048393:	5b                   	pop    ebx
 8048394:	5d                   	pop    ebp
 8048395:	c3                   	ret    
 8048396:	8d 76 00             	lea    esi,[esi+0x0]
 8048399:	8d bc 27 00 00 00 00 	lea    edi,[edi+eiz*1+0x0]

080483a0 <frame_dummy>:
 80483a0:	55                   	push   ebp
 80483a1:	89 e5                	mov    ebp,esp
 80483a3:	83 ec 08             	sub    esp,0x8
 80483a6:	a1 1c 9f 04 08       	mov    eax,ds:0x8049f1c
 80483ab:	85 c0                	test   eax,eax
 80483ad:	74 12                	je     80483c1 <frame_dummy+0x21>
 80483af:	b8 00 00 00 00       	mov    eax,0x0
 80483b4:	85 c0                	test   eax,eax
 80483b6:	74 09                	je     80483c1 <frame_dummy+0x21>
 80483b8:	c7 04 24 1c 9f 04 08 	mov    DWORD PTR [esp],0x8049f1c
 80483bf:	ff d0                	call   eax
 80483c1:	c9                   	leave  
 80483c2:	c3                   	ret    
 80483c3:	90                   	nop    

080483c4 <main>:
 80483c4:	8d 4c 24 04          	lea    ecx,[esp+0x4]
 80483c8:	83 e4 f0             	and    esp,0xfffffff0
 80483cb:	ff 71 fc             	push   DWORD PTR [ecx-0x4]
 80483ce:	55                   	push   ebp
 80483cf:	89 e5                	mov    ebp,esp
 80483d1:	51                   	push   ecx
 80483d2:	83 ec 24             	sub    esp,0x24
 80483d5:	c7 45 f8 00 00 00 00 	mov    DWORD PTR [ebp-0x8],0x0
 80483dc:	eb 10                	jmp    80483ee <main+0x2a>
 80483de:	c7 04 24 c0 84 04 08 	mov    DWORD PTR [esp],0x80484c0
 80483e5:	e8 0a ff ff ff       	call   80482f4 <puts@plt>
 80483ea:	83 45 f8 01          	add    DWORD PTR [ebp-0x8],0x1
 80483ee:	83 7d f8 09          	cmp    DWORD PTR [ebp-0x8],0x9
 80483f2:	7e ea                	jle    80483de <main+0x1a>
 80483f4:	83 c4 24             	add    esp,0x24
 80483f7:	59                   	pop    ecx
 80483f8:	5d                   	pop    ebp
 80483f9:	8d 61 fc             	lea    esp,[ecx-0x4]
 80483fc:	c3                   	ret    
 80483fd:	90                   	nop    
 80483fe:	90                   	nop    
 80483ff:	90                   	nop    

08048400 <__libc_csu_fini>:
 8048400:	55                   	push   ebp
 8048401:	89 e5                	mov    ebp,esp
 8048403:	5d                   	pop    ebp
 8048404:	c3                   	ret    
 8048405:	8d 74 26 00          	lea    esi,[esi+eiz*1+0x0]
 8048409:	8d bc 27 00 00 00 00 	lea    edi,[edi+eiz*1+0x0]

08048410 <__libc_csu_init>:
 8048410:	55                   	push   ebp
 8048411:	89 e5                	mov    ebp,esp
 8048413:	57                   	push   edi
 8048414:	56                   	push   esi
 8048415:	53                   	push   ebx
 8048416:	e8 4f 00 00 00       	call   804846a <__i686.get_pc_thunk.bx>
 804841b:	81 c3 d9 1b 00 00    	add    ebx,0x1bd9
 8048421:	83 ec 0c             	sub    esp,0xc
 8048424:	e8 6b fe ff ff       	call   8048294 <_init>
 8048429:	8d bb 18 ff ff ff    	lea    edi,[ebx-0xe8]
 804842f:	8d 83 18 ff ff ff    	lea    eax,[ebx-0xe8]
 8048435:	29 c7                	sub    edi,eax
 8048437:	c1 ff 02             	sar    edi,0x2
 804843a:	85 ff                	test   edi,edi
 804843c:	74 24                	je     8048462 <__libc_csu_init+0x52>
 804843e:	31 f6                	xor    esi,esi
 8048440:	8b 45 10             	mov    eax,DWORD PTR [ebp+0x10]
 8048443:	89 44 24 08          	mov    DWORD PTR [esp+0x8],eax
 8048447:	8b 45 0c             	mov    eax,DWORD PTR [ebp+0xc]
 804844a:	89 44 24 04          	mov    DWORD PTR [esp+0x4],eax
 804844e:	8b 45 08             	mov    eax,DWORD PTR [ebp+0x8]
 8048451:	89 04 24             	mov    DWORD PTR [esp],eax
 8048454:	ff 94 b3 18 ff ff ff 	call   DWORD PTR [ebx+esi*4-0xe8]
 804845b:	83 c6 01             	add    esi,0x1
 804845e:	39 fe                	cmp    esi,edi
 8048460:	72 de                	jb     8048440 <__libc_csu_init+0x30>
 8048462:	83 c4 0c             	add    esp,0xc
 8048465:	5b                   	pop    ebx
 8048466:	5e                   	pop    esi
 8048467:	5f                   	pop    edi
 8048468:	5d                   	pop    ebp
 8048469:	c3                   	ret    

0804846a <__i686.get_pc_thunk.bx>:
 804846a:	8b 1c 24             	mov    ebx,DWORD PTR [esp]
 804846d:	c3                   	ret    
 804846e:	90                   	nop    
 804846f:	90                   	nop    

08048470 <__do_global_ctors_aux>:
 8048470:	55                   	push   ebp
 8048471:	89 e5                	mov    ebp,esp
 8048473:	53                   	push   ebx
 8048474:	83 ec 04             	sub    esp,0x4
 8048477:	a1 0c 9f 04 08       	mov    eax,ds:0x8049f0c
 804847c:	83 f8 ff             	cmp    eax,0xffffffff
 804847f:	74 13                	je     8048494 <__do_global_ctors_aux+0x24>
 8048481:	bb 0c 9f 04 08       	mov    ebx,0x8049f0c
 8048486:	66 90                	xchg   ax,ax
 8048488:	83 eb 04             	sub    ebx,0x4
 804848b:	ff d0                	call   eax
 804848d:	8b 03                	mov    eax,DWORD PTR [ebx]
 804848f:	83 f8 ff             	cmp    eax,0xffffffff
 8048492:	75 f4                	jne    8048488 <__do_global_ctors_aux+0x18>
 8048494:	83 c4 04             	add    esp,0x4
 8048497:	5b                   	pop    ebx
 8048498:	5d                   	pop    ebp
 8048499:	c3                   	ret    
 804849a:	90                   	nop    
 804849b:	90                   	nop    

Disassembly of section .fini:

0804849c <_fini>:
 804849c:	55                   	push   ebp
 804849d:	89 e5                	mov    ebp,esp
 804849f:	53                   	push   ebx
 80484a0:	83 ec 04             	sub    esp,0x4
 80484a3:	e8 00 00 00 00       	call   80484a8 <_fini+0xc>
 80484a8:	5b                   	pop    ebx
 80484a9:	81 c3 4c 1b 00 00    	add    ebx,0x1b4c
 80484af:	e8 8c fe ff ff       	call   8048340 <__do_global_dtors_aux>
 80484b4:	59                   	pop    ecx
 80484b5:	5b                   	pop    ebx
 80484b6:	c9                   	leave  
 80484b7:	c3                   	ret    
