
get_shell_1.out:     file format elf32-i386


Disassembly of section .init:

08048298 <_init>:
 8048298:	55                   	push   ebp
 8048299:	89 e5                	mov    ebp,esp
 804829b:	53                   	push   ebx
 804829c:	83 ec 04             	sub    esp,0x4
 804829f:	e8 00 00 00 00       	call   80482a4 <_init+0xc>
 80482a4:	5b                   	pop    ebx
 80482a5:	81 c3 50 1d 00 00    	add    ebx,0x1d50
 80482ab:	8b 93 fc ff ff ff    	mov    edx,DWORD PTR [ebx-0x4]
 80482b1:	85 d2                	test   edx,edx
 80482b3:	74 05                	je     80482ba <_init+0x22>
 80482b5:	e8 1e 00 00 00       	call   80482d8 <__gmon_start__@plt>
 80482ba:	e8 e1 00 00 00       	call   80483a0 <frame_dummy>
 80482bf:	e8 bc 01 00 00       	call   8048480 <__do_global_ctors_aux>
 80482c4:	58                   	pop    eax
 80482c5:	5b                   	pop    ebx
 80482c6:	c9                   	leave  
 80482c7:	c3                   	ret    

Disassembly of section .plt:

080482c8 <__gmon_start__@plt-0x10>:
 80482c8:	ff 35 f8 9f 04 08    	push   DWORD PTR ds:0x8049ff8
 80482ce:	ff 25 fc 9f 04 08    	jmp    DWORD PTR ds:0x8049ffc
 80482d4:	00 00                	add    BYTE PTR [eax],al
	...

080482d8 <__gmon_start__@plt>:
 80482d8:	ff 25 00 a0 04 08    	jmp    DWORD PTR ds:0x804a000
 80482de:	68 00 00 00 00       	push   0x0
 80482e3:	e9 e0 ff ff ff       	jmp    80482c8 <_init+0x30>

080482e8 <__libc_start_main@plt>:
 80482e8:	ff 25 04 a0 04 08    	jmp    DWORD PTR ds:0x804a004
 80482ee:	68 08 00 00 00       	push   0x8
 80482f3:	e9 d0 ff ff ff       	jmp    80482c8 <_init+0x30>

080482f8 <execve@plt>:
 80482f8:	ff 25 08 a0 04 08    	jmp    DWORD PTR ds:0x804a008
 80482fe:	68 10 00 00 00       	push   0x10
 8048303:	e9 c0 ff ff ff       	jmp    80482c8 <_init+0x30>

Disassembly of section .text:

08048310 <_start>:
 8048310:	31 ed                	xor    ebp,ebp
 8048312:	5e                   	pop    esi
 8048313:	89 e1                	mov    ecx,esp
 8048315:	83 e4 f0             	and    esp,0xfffffff0
 8048318:	50                   	push   eax
 8048319:	54                   	push   esp
 804831a:	52                   	push   edx
 804831b:	68 10 84 04 08       	push   0x8048410
 8048320:	68 20 84 04 08       	push   0x8048420
 8048325:	51                   	push   ecx
 8048326:	56                   	push   esi
 8048327:	68 c4 83 04 08       	push   0x80483c4
 804832c:	e8 b7 ff ff ff       	call   80482e8 <__libc_start_main@plt>
 8048331:	f4                   	hlt    
 8048332:	90                   	nop    
 8048333:	90                   	nop    
 8048334:	90                   	nop    
 8048335:	90                   	nop    
 8048336:	90                   	nop    
 8048337:	90                   	nop    
 8048338:	90                   	nop    
 8048339:	90                   	nop    
 804833a:	90                   	nop    
 804833b:	90                   	nop    
 804833c:	90                   	nop    
 804833d:	90                   	nop    
 804833e:	90                   	nop    
 804833f:	90                   	nop    

08048340 <__do_global_dtors_aux>:
 8048340:	55                   	push   ebp
 8048341:	89 e5                	mov    ebp,esp
 8048343:	53                   	push   ebx
 8048344:	83 ec 04             	sub    esp,0x4
 8048347:	80 3d 14 a0 04 08 00 	cmp    BYTE PTR ds:0x804a014,0x0
 804834e:	75 40                	jne    8048390 <__do_global_dtors_aux+0x50>
 8048350:	8b 15 18 a0 04 08    	mov    edx,DWORD PTR ds:0x804a018
 8048356:	b8 18 9f 04 08       	mov    eax,0x8049f18
 804835b:	2d 14 9f 04 08       	sub    eax,0x8049f14
 8048360:	c1 f8 02             	sar    eax,0x2
 8048363:	8d 58 ff             	lea    ebx,[eax-0x1]
 8048366:	39 da                	cmp    edx,ebx
 8048368:	73 1f                	jae    8048389 <__do_global_dtors_aux+0x49>
 804836a:	8d b6 00 00 00 00    	lea    esi,[esi+0x0]
 8048370:	8d 42 01             	lea    eax,[edx+0x1]
 8048373:	a3 18 a0 04 08       	mov    ds:0x804a018,eax
 8048378:	ff 14 85 14 9f 04 08 	call   DWORD PTR [eax*4+0x8049f14]
 804837f:	8b 15 18 a0 04 08    	mov    edx,DWORD PTR ds:0x804a018
 8048385:	39 da                	cmp    edx,ebx
 8048387:	72 e7                	jb     8048370 <__do_global_dtors_aux+0x30>
 8048389:	c6 05 14 a0 04 08 01 	mov    BYTE PTR ds:0x804a014,0x1
 8048390:	83 c4 04             	add    esp,0x4
 8048393:	5b                   	pop    ebx
 8048394:	5d                   	pop    ebp
 8048395:	c3                   	ret    
 8048396:	8d 76 00             	lea    esi,[esi+0x0]
 8048399:	8d bc 27 00 00 00 00 	lea    edi,[edi+eiz*1+0x0]

080483a0 <frame_dummy>:
 80483a0:	55                   	push   ebp
 80483a1:	89 e5                	mov    ebp,esp
 80483a3:	83 ec 08             	sub    esp,0x8
 80483a6:	a1 1c 9f 04 08       	mov    eax,ds:0x8049f1c
 80483ab:	85 c0                	test   eax,eax
 80483ad:	74 12                	je     80483c1 <frame_dummy+0x21>
 80483af:	b8 00 00 00 00       	mov    eax,0x0
 80483b4:	85 c0                	test   eax,eax
 80483b6:	74 09                	je     80483c1 <frame_dummy+0x21>
 80483b8:	c7 04 24 1c 9f 04 08 	mov    DWORD PTR [esp],0x8049f1c
 80483bf:	ff d0                	call   eax
 80483c1:	c9                   	leave  
 80483c2:	c3                   	ret    
 80483c3:	90                   	nop    

080483c4 <main>:
 80483c4:	8d 4c 24 04          	lea    ecx,[esp+0x4]
 80483c8:	83 e4 f0             	and    esp,0xfffffff0
 80483cb:	ff 71 fc             	push   DWORD PTR [ecx-0x4]
 80483ce:	55                   	push   ebp
 80483cf:	89 e5                	mov    ebp,esp
 80483d1:	51                   	push   ecx
 80483d2:	83 ec 24             	sub    esp,0x24
 80483d5:	c7 45 f4 d0 84 04 08 	mov    DWORD PTR [ebp-0xc],0x80484d0
 80483dc:	c7 45 f8 00 00 00 00 	mov    DWORD PTR [ebp-0x8],0x0
 80483e3:	8b 55 f4             	mov    edx,DWORD PTR [ebp-0xc]
 80483e6:	c7 44 24 08 00 00 00 	mov    DWORD PTR [esp+0x8],0x0
 80483ed:	00 
 80483ee:	8d 45 f4             	lea    eax,[ebp-0xc]
 80483f1:	89 44 24 04          	mov    DWORD PTR [esp+0x4],eax
 80483f5:	89 14 24             	mov    DWORD PTR [esp],edx
 80483f8:	e8 fb fe ff ff       	call   80482f8 <execve@plt>
 80483fd:	83 c4 24             	add    esp,0x24
 8048400:	59                   	pop    ecx
 8048401:	5d                   	pop    ebp
 8048402:	8d 61 fc             	lea    esp,[ecx-0x4]
 8048405:	c3                   	ret    
 8048406:	90                   	nop    
 8048407:	90                   	nop    
 8048408:	90                   	nop    
 8048409:	90                   	nop    
 804840a:	90                   	nop    
 804840b:	90                   	nop    
 804840c:	90                   	nop    
 804840d:	90                   	nop    
 804840e:	90                   	nop    
 804840f:	90                   	nop    

08048410 <__libc_csu_fini>:
 8048410:	55                   	push   ebp
 8048411:	89 e5                	mov    ebp,esp
 8048413:	5d                   	pop    ebp
 8048414:	c3                   	ret    
 8048415:	8d 74 26 00          	lea    esi,[esi+eiz*1+0x0]
 8048419:	8d bc 27 00 00 00 00 	lea    edi,[edi+eiz*1+0x0]

08048420 <__libc_csu_init>:
 8048420:	55                   	push   ebp
 8048421:	89 e5                	mov    ebp,esp
 8048423:	57                   	push   edi
 8048424:	56                   	push   esi
 8048425:	53                   	push   ebx
 8048426:	e8 4f 00 00 00       	call   804847a <__i686.get_pc_thunk.bx>
 804842b:	81 c3 c9 1b 00 00    	add    ebx,0x1bc9
 8048431:	83 ec 0c             	sub    esp,0xc
 8048434:	e8 5f fe ff ff       	call   8048298 <_init>
 8048439:	8d bb 18 ff ff ff    	lea    edi,[ebx-0xe8]
 804843f:	8d 83 18 ff ff ff    	lea    eax,[ebx-0xe8]
 8048445:	29 c7                	sub    edi,eax
 8048447:	c1 ff 02             	sar    edi,0x2
 804844a:	85 ff                	test   edi,edi
 804844c:	74 24                	je     8048472 <__libc_csu_init+0x52>
 804844e:	31 f6                	xor    esi,esi
 8048450:	8b 45 10             	mov    eax,DWORD PTR [ebp+0x10]
 8048453:	89 44 24 08          	mov    DWORD PTR [esp+0x8],eax
 8048457:	8b 45 0c             	mov    eax,DWORD PTR [ebp+0xc]
 804845a:	89 44 24 04          	mov    DWORD PTR [esp+0x4],eax
 804845e:	8b 45 08             	mov    eax,DWORD PTR [ebp+0x8]
 8048461:	89 04 24             	mov    DWORD PTR [esp],eax
 8048464:	ff 94 b3 18 ff ff ff 	call   DWORD PTR [ebx+esi*4-0xe8]
 804846b:	83 c6 01             	add    esi,0x1
 804846e:	39 fe                	cmp    esi,edi
 8048470:	72 de                	jb     8048450 <__libc_csu_init+0x30>
 8048472:	83 c4 0c             	add    esp,0xc
 8048475:	5b                   	pop    ebx
 8048476:	5e                   	pop    esi
 8048477:	5f                   	pop    edi
 8048478:	5d                   	pop    ebp
 8048479:	c3                   	ret    

0804847a <__i686.get_pc_thunk.bx>:
 804847a:	8b 1c 24             	mov    ebx,DWORD PTR [esp]
 804847d:	c3                   	ret    
 804847e:	90                   	nop    
 804847f:	90                   	nop    

08048480 <__do_global_ctors_aux>:
 8048480:	55                   	push   ebp
 8048481:	89 e5                	mov    ebp,esp
 8048483:	53                   	push   ebx
 8048484:	83 ec 04             	sub    esp,0x4
 8048487:	a1 0c 9f 04 08       	mov    eax,ds:0x8049f0c
 804848c:	83 f8 ff             	cmp    eax,0xffffffff
 804848f:	74 13                	je     80484a4 <__do_global_ctors_aux+0x24>
 8048491:	bb 0c 9f 04 08       	mov    ebx,0x8049f0c
 8048496:	66 90                	xchg   ax,ax
 8048498:	83 eb 04             	sub    ebx,0x4
 804849b:	ff d0                	call   eax
 804849d:	8b 03                	mov    eax,DWORD PTR [ebx]
 804849f:	83 f8 ff             	cmp    eax,0xffffffff
 80484a2:	75 f4                	jne    8048498 <__do_global_ctors_aux+0x18>
 80484a4:	83 c4 04             	add    esp,0x4
 80484a7:	5b                   	pop    ebx
 80484a8:	5d                   	pop    ebp
 80484a9:	c3                   	ret    
 80484aa:	90                   	nop    
 80484ab:	90                   	nop    

Disassembly of section .fini:

080484ac <_fini>:
 80484ac:	55                   	push   ebp
 80484ad:	89 e5                	mov    ebp,esp
 80484af:	53                   	push   ebx
 80484b0:	83 ec 04             	sub    esp,0x4
 80484b3:	e8 00 00 00 00       	call   80484b8 <_fini+0xc>
 80484b8:	5b                   	pop    ebx
 80484b9:	81 c3 3c 1b 00 00    	add    ebx,0x1b3c
 80484bf:	e8 7c fe ff ff       	call   8048340 <__do_global_dtors_aux>
 80484c4:	59                   	pop    ecx
 80484c5:	5b                   	pop    ebx
 80484c6:	c9                   	leave  
 80484c7:	c3                   	ret    
