
get_shell_2.out:     file format elf32-i386


Disassembly of section .init:

08048274 <_init>:
 8048274:	55                   	push   ebp
 8048275:	89 e5                	mov    ebp,esp
 8048277:	53                   	push   ebx
 8048278:	83 ec 04             	sub    esp,0x4
 804827b:	e8 00 00 00 00       	call   8048280 <_init+0xc>
 8048280:	5b                   	pop    ebx
 8048281:	81 c3 74 1d 00 00    	add    ebx,0x1d74
 8048287:	8b 93 fc ff ff ff    	mov    edx,DWORD PTR [ebx-0x4]
 804828d:	85 d2                	test   edx,edx
 804828f:	74 05                	je     8048296 <_init+0x22>
 8048291:	e8 1e 00 00 00       	call   80482b4 <__gmon_start__@plt>
 8048296:	e8 d5 00 00 00       	call   8048370 <frame_dummy>
 804829b:	e8 a0 01 00 00       	call   8048440 <__do_global_ctors_aux>
 80482a0:	58                   	pop    eax
 80482a1:	5b                   	pop    ebx
 80482a2:	c9                   	leave  
 80482a3:	c3                   	ret    

Disassembly of section .plt:

080482a4 <__gmon_start__@plt-0x10>:
 80482a4:	ff 35 f8 9f 04 08    	push   DWORD PTR ds:0x8049ff8
 80482aa:	ff 25 fc 9f 04 08    	jmp    DWORD PTR ds:0x8049ffc
 80482b0:	00 00                	add    BYTE PTR [eax],al
	...

080482b4 <__gmon_start__@plt>:
 80482b4:	ff 25 00 a0 04 08    	jmp    DWORD PTR ds:0x804a000
 80482ba:	68 00 00 00 00       	push   0x0
 80482bf:	e9 e0 ff ff ff       	jmp    80482a4 <_init+0x30>

080482c4 <__libc_start_main@plt>:
 80482c4:	ff 25 04 a0 04 08    	jmp    DWORD PTR ds:0x804a004
 80482ca:	68 08 00 00 00       	push   0x8
 80482cf:	e9 d0 ff ff ff       	jmp    80482a4 <_init+0x30>

Disassembly of section .text:

080482e0 <_start>:
 80482e0:	31 ed                	xor    ebp,ebp
 80482e2:	5e                   	pop    esi
 80482e3:	89 e1                	mov    ecx,esp
 80482e5:	83 e4 f0             	and    esp,0xfffffff0
 80482e8:	50                   	push   eax
 80482e9:	54                   	push   esp
 80482ea:	52                   	push   edx
 80482eb:	68 d0 83 04 08       	push   0x80483d0
 80482f0:	68 e0 83 04 08       	push   0x80483e0
 80482f5:	51                   	push   ecx
 80482f6:	56                   	push   esi
 80482f7:	68 94 83 04 08       	push   0x8048394
 80482fc:	e8 c3 ff ff ff       	call   80482c4 <__libc_start_main@plt>
 8048301:	f4                   	hlt    
 8048302:	90                   	nop    
 8048303:	90                   	nop    
 8048304:	90                   	nop    
 8048305:	90                   	nop    
 8048306:	90                   	nop    
 8048307:	90                   	nop    
 8048308:	90                   	nop    
 8048309:	90                   	nop    
 804830a:	90                   	nop    
 804830b:	90                   	nop    
 804830c:	90                   	nop    
 804830d:	90                   	nop    
 804830e:	90                   	nop    
 804830f:	90                   	nop    

08048310 <__do_global_dtors_aux>:
 8048310:	55                   	push   ebp
 8048311:	89 e5                	mov    ebp,esp
 8048313:	53                   	push   ebx
 8048314:	83 ec 04             	sub    esp,0x4
 8048317:	80 3d 68 a0 04 08 00 	cmp    BYTE PTR ds:0x804a068,0x0
 804831e:	75 40                	jne    8048360 <__do_global_dtors_aux+0x50>
 8048320:	8b 15 6c a0 04 08    	mov    edx,DWORD PTR ds:0x804a06c
 8048326:	b8 18 9f 04 08       	mov    eax,0x8049f18
 804832b:	2d 14 9f 04 08       	sub    eax,0x8049f14
 8048330:	c1 f8 02             	sar    eax,0x2
 8048333:	8d 58 ff             	lea    ebx,[eax-0x1]
 8048336:	39 da                	cmp    edx,ebx
 8048338:	73 1f                	jae    8048359 <__do_global_dtors_aux+0x49>
 804833a:	8d b6 00 00 00 00    	lea    esi,[esi+0x0]
 8048340:	8d 42 01             	lea    eax,[edx+0x1]
 8048343:	a3 6c a0 04 08       	mov    ds:0x804a06c,eax
 8048348:	ff 14 85 14 9f 04 08 	call   DWORD PTR [eax*4+0x8049f14]
 804834f:	8b 15 6c a0 04 08    	mov    edx,DWORD PTR ds:0x804a06c
 8048355:	39 da                	cmp    edx,ebx
 8048357:	72 e7                	jb     8048340 <__do_global_dtors_aux+0x30>
 8048359:	c6 05 68 a0 04 08 01 	mov    BYTE PTR ds:0x804a068,0x1
 8048360:	83 c4 04             	add    esp,0x4
 8048363:	5b                   	pop    ebx
 8048364:	5d                   	pop    ebp
 8048365:	c3                   	ret    
 8048366:	8d 76 00             	lea    esi,[esi+0x0]
 8048369:	8d bc 27 00 00 00 00 	lea    edi,[edi+eiz*1+0x0]

08048370 <frame_dummy>:
 8048370:	55                   	push   ebp
 8048371:	89 e5                	mov    ebp,esp
 8048373:	83 ec 08             	sub    esp,0x8
 8048376:	a1 1c 9f 04 08       	mov    eax,ds:0x8049f1c
 804837b:	85 c0                	test   eax,eax
 804837d:	74 12                	je     8048391 <frame_dummy+0x21>
 804837f:	b8 00 00 00 00       	mov    eax,0x0
 8048384:	85 c0                	test   eax,eax
 8048386:	74 09                	je     8048391 <frame_dummy+0x21>
 8048388:	c7 04 24 1c 9f 04 08 	mov    DWORD PTR [esp],0x8049f1c
 804838f:	ff d0                	call   eax
 8048391:	c9                   	leave  
 8048392:	c3                   	ret    
 8048393:	90                   	nop    

08048394 <main>:
 8048394:	8d 4c 24 04          	lea    ecx,[esp+0x4]
 8048398:	83 e4 f0             	and    esp,0xfffffff0
 804839b:	ff 71 fc             	push   DWORD PTR [ecx-0x4]
 804839e:	55                   	push   ebp
 804839f:	89 e5                	mov    ebp,esp
 80483a1:	51                   	push   ecx
 80483a2:	83 ec 14             	sub    esp,0x14
 80483a5:	8d 45 f8             	lea    eax,[ebp-0x8]
 80483a8:	83 c0 08             	add    eax,0x8
 80483ab:	89 45 f8             	mov    DWORD PTR [ebp-0x8],eax
 80483ae:	8b 55 f8             	mov    edx,DWORD PTR [ebp-0x8]
 80483b1:	b8 40 a0 04 08       	mov    eax,0x804a040
 80483b6:	89 02                	mov    DWORD PTR [edx],eax
 80483b8:	83 c4 14             	add    esp,0x14
 80483bb:	59                   	pop    ecx
 80483bc:	5d                   	pop    ebp
 80483bd:	8d 61 fc             	lea    esp,[ecx-0x4]
 80483c0:	c3                   	ret    
 80483c1:	90                   	nop    
 80483c2:	90                   	nop    
 80483c3:	90                   	nop    
 80483c4:	90                   	nop    
 80483c5:	90                   	nop    
 80483c6:	90                   	nop    
 80483c7:	90                   	nop    
 80483c8:	90                   	nop    
 80483c9:	90                   	nop    
 80483ca:	90                   	nop    
 80483cb:	90                   	nop    
 80483cc:	90                   	nop    
 80483cd:	90                   	nop    
 80483ce:	90                   	nop    
 80483cf:	90                   	nop    

080483d0 <__libc_csu_fini>:
 80483d0:	55                   	push   ebp
 80483d1:	89 e5                	mov    ebp,esp
 80483d3:	5d                   	pop    ebp
 80483d4:	c3                   	ret    
 80483d5:	8d 74 26 00          	lea    esi,[esi+eiz*1+0x0]
 80483d9:	8d bc 27 00 00 00 00 	lea    edi,[edi+eiz*1+0x0]

080483e0 <__libc_csu_init>:
 80483e0:	55                   	push   ebp
 80483e1:	89 e5                	mov    ebp,esp
 80483e3:	57                   	push   edi
 80483e4:	56                   	push   esi
 80483e5:	53                   	push   ebx
 80483e6:	e8 4f 00 00 00       	call   804843a <__i686.get_pc_thunk.bx>
 80483eb:	81 c3 09 1c 00 00    	add    ebx,0x1c09
 80483f1:	83 ec 0c             	sub    esp,0xc
 80483f4:	e8 7b fe ff ff       	call   8048274 <_init>
 80483f9:	8d bb 18 ff ff ff    	lea    edi,[ebx-0xe8]
 80483ff:	8d 83 18 ff ff ff    	lea    eax,[ebx-0xe8]
 8048405:	29 c7                	sub    edi,eax
 8048407:	c1 ff 02             	sar    edi,0x2
 804840a:	85 ff                	test   edi,edi
 804840c:	74 24                	je     8048432 <__libc_csu_init+0x52>
 804840e:	31 f6                	xor    esi,esi
 8048410:	8b 45 10             	mov    eax,DWORD PTR [ebp+0x10]
 8048413:	89 44 24 08          	mov    DWORD PTR [esp+0x8],eax
 8048417:	8b 45 0c             	mov    eax,DWORD PTR [ebp+0xc]
 804841a:	89 44 24 04          	mov    DWORD PTR [esp+0x4],eax
 804841e:	8b 45 08             	mov    eax,DWORD PTR [ebp+0x8]
 8048421:	89 04 24             	mov    DWORD PTR [esp],eax
 8048424:	ff 94 b3 18 ff ff ff 	call   DWORD PTR [ebx+esi*4-0xe8]
 804842b:	83 c6 01             	add    esi,0x1
 804842e:	39 fe                	cmp    esi,edi
 8048430:	72 de                	jb     8048410 <__libc_csu_init+0x30>
 8048432:	83 c4 0c             	add    esp,0xc
 8048435:	5b                   	pop    ebx
 8048436:	5e                   	pop    esi
 8048437:	5f                   	pop    edi
 8048438:	5d                   	pop    ebp
 8048439:	c3                   	ret    

0804843a <__i686.get_pc_thunk.bx>:
 804843a:	8b 1c 24             	mov    ebx,DWORD PTR [esp]
 804843d:	c3                   	ret    
 804843e:	90                   	nop    
 804843f:	90                   	nop    

08048440 <__do_global_ctors_aux>:
 8048440:	55                   	push   ebp
 8048441:	89 e5                	mov    ebp,esp
 8048443:	53                   	push   ebx
 8048444:	83 ec 04             	sub    esp,0x4
 8048447:	a1 0c 9f 04 08       	mov    eax,ds:0x8049f0c
 804844c:	83 f8 ff             	cmp    eax,0xffffffff
 804844f:	74 13                	je     8048464 <__do_global_ctors_aux+0x24>
 8048451:	bb 0c 9f 04 08       	mov    ebx,0x8049f0c
 8048456:	66 90                	xchg   ax,ax
 8048458:	83 eb 04             	sub    ebx,0x4
 804845b:	ff d0                	call   eax
 804845d:	8b 03                	mov    eax,DWORD PTR [ebx]
 804845f:	83 f8 ff             	cmp    eax,0xffffffff
 8048462:	75 f4                	jne    8048458 <__do_global_ctors_aux+0x18>
 8048464:	83 c4 04             	add    esp,0x4
 8048467:	5b                   	pop    ebx
 8048468:	5d                   	pop    ebp
 8048469:	c3                   	ret    
 804846a:	90                   	nop    
 804846b:	90                   	nop    

Disassembly of section .fini:

0804846c <_fini>:
 804846c:	55                   	push   ebp
 804846d:	89 e5                	mov    ebp,esp
 804846f:	53                   	push   ebx
 8048470:	83 ec 04             	sub    esp,0x4
 8048473:	e8 00 00 00 00       	call   8048478 <_fini+0xc>
 8048478:	5b                   	pop    ebx
 8048479:	81 c3 7c 1b 00 00    	add    ebx,0x1b7c
 804847f:	e8 8c fe ff ff       	call   8048310 <__do_global_dtors_aux>
 8048484:	59                   	pop    ecx
 8048485:	5b                   	pop    ebx
 8048486:	c9                   	leave  
 8048487:	c3                   	ret    
